GAS LISTING C:\Users\Saeh\AppData\Local\Temp\ccRg9ywZ.s 			page 1


   1              		.file	"shellcmd.c"
   2              		.section	".text","axv"
   3              	.Ltext0:
   4              		.cfi_sections	.debug_frame
   5              		.section	.text.ThreadFullDemo,"axv",@progbits
   6              		.align 1
   7              		.p2align 4,,15
   8              		.globl ThreadFullDemo
   9              		.type	ThreadFullDemo, @function
  10              	ThreadFullDemo:
  11              	.LFB47:
  12              		.file 1 "./source/shellcmd.c"
  13              		.loc 1 65 0
  14              		.cfi_startproc
  15              	.LVL0:
  16 0000 182106E8 		e_stwu %r1,-24(%r1)
  17              	.LCFI0:
  18              		.cfi_def_cfa_offset 24
  19              		.loc 1 67 0
  20 0004 7120E000 		e_lis %r9,rlist+24@ha
  21              		.loc 1 65 0
  22 0008 1B810908 		e_stmw %r28,8(%r1)
  23              		.loc 1 67 0
  24 000c 51490000 		e_lwz %r10,rlist+24@l(%r9)
  25              		.loc 1 65 0
  26 0010 0080     		se_mflr %r0
  27              		.cfi_offset 28, -16
  28              		.cfi_offset 29, -12
  29              		.cfi_offset 30, -8
  30              		.cfi_offset 31, -4
  31              		.cfi_register 65, 0
  32              		.loc 1 69 0
  33 0012 73E0E000 		e_lis %r31,.LANCHOR0@ha
  34              		.loc 1 65 0
  35 0016 D701     		se_stw %r0,28(%r1)
  36              		.cfi_offset 65, 4
  37              		.loc 1 67 0
  38 0018 7120E000 		e_lis %r9,.LC0@ha
  39 001c 1D290000 		e_la %r9,.LC0@l(%r9)
  40 0020 552A0018 		e_stw %r9,24(%r10)
  41              		.loc 1 69 0
  42 0024 313F0000 		e_lbz %r9,.LANCHOR0@l(%r31)
  43 0028 1829A800 		e_cmpi %cr1,%r9,0
  44 002c 7A1600CA 		e_beq %cr1,.L3
  45              		.loc 1 129 0
  46 0030 73C0E000 		e_lis %r30,bLightOn@ha
  47 0034 1FFF0000 		e_la %r31,.LANCHOR0@l(%r31)
  48 0038 1FDE0000 		e_la %r30,bLightOn@l(%r30)
  49 003c 481C     		se_li %r28,1
  50              		.loc 1 136 0
  51 003e 480D     		se_li %r29,0
  52 0040 78000098 		e_b .L2
  53              	.LVL1:
  54              	.L25:
  55              		.loc 1 83 0
  56 0044 70820388 		e_li %r4,5000
  57 0048 4823     		se_li %r3,2
GAS LISTING C:\Users\Saeh\AppData\Local\Temp\ccRg9ywZ.s 			page 2


  58 004a 78000001 		e_bl drivecmd
  59              	.LVL2:
  60              		.loc 1 87 0
  61 004e 70620388 		e_li %r3,5000
  62 0052 78000001 		e_bl chThdSleep
  63              	.LVL3:
  64              		.loc 1 90 0
  65 0056 313F0000 		e_lbz %r9,0(%r31)
  66 005a 1829A800 		e_cmpi %cr1,%r9,0
  67 005e 7A1600AC 		e_beq %cr1,.L5
  68              		.loc 1 91 0
  69 0062 4813     		se_li %r3,1
  70 0064 78000001 		e_bl turncmd
  71              	.LVL4:
  72              		.loc 1 97 0
  73 0068 70620388 		e_li %r3,5000
  74 006c 78000001 		e_bl chThdSleep
  75              	.LVL5:
  76              		.loc 1 100 0
  77 0070 313F0000 		e_lbz %r9,0(%r31)
  78 0074 1829A800 		e_cmpi %cr1,%r9,0
  79 0078 7A160092 		e_beq %cr1,.L5
  80              		.loc 1 101 0
  81 007c 4823     		se_li %r3,2
  82 007e 78000001 		e_bl turncmd
  83              	.LVL6:
  84              		.loc 1 107 0
  85 0082 70620388 		e_li %r3,5000
  86 0086 78000001 		e_bl chThdSleep
  87              	.LVL7:
  88              		.loc 1 110 0
  89 008a 313F0000 		e_lbz %r9,0(%r31)
  90 008e 1829A800 		e_cmpi %cr1,%r9,0
  91 0092 7A160078 		e_beq %cr1,.L5
  92              		.loc 1 111 0
  93 0096 4803     		se_li %r3,0
  94 0098 78000001 		e_bl turncmd
  95              	.LVL8:
  96              		.loc 1 117 0
  97 009c 70620388 		e_li %r3,5000
  98 00a0 78000001 		e_bl chThdSleep
  99              	.LVL9:
 100              		.loc 1 120 0
 101 00a4 313F0000 		e_lbz %r9,0(%r31)
 102 00a8 1829A800 		e_cmpi %cr1,%r9,0
 103 00ac 7A16005E 		e_beq %cr1,.L5
 104              		.loc 1 121 0
 105 00b0 78000001 		e_bl stopcmd
 106              	.LVL10:
 107              		.loc 1 128 0
 108 00b4 313F0000 		e_lbz %r9,0(%r31)
 109 00b8 1829A800 		e_cmpi %cr1,%r9,0
 110 00bc 7A16004E 		e_beq %cr1,.L5
 111              		.loc 1 129 0
 112 00c0 90CE     		se_stb %r28,0(%r30)
 113              		.loc 1 135 0
 114 00c2 70690620 		e_li %r3,20000
GAS LISTING C:\Users\Saeh\AppData\Local\Temp\ccRg9ywZ.s 			page 3


 115 00c6 78000001 		e_bl chThdSleep
 116              	.LVL11:
 117              		.loc 1 69 0
 118 00ca 313F0000 		e_lbz %r9,0(%r31)
 119              		.loc 1 136 0
 120 00ce 90DE     		se_stb %r29,0(%r30)
 121              		.loc 1 69 0
 122 00d0 1829A800 		e_cmpi %cr1,%r9,0
 123 00d4 7A160022 		e_beq %cr1,.L3
 124              	.L2:
 125              		.loc 1 73 0
 126 00d8 70820388 		e_li %r4,5000
 127 00dc 4813     		se_li %r3,1
 128 00de 78000001 		e_bl drivecmd
 129              	.LVL12:
 130              		.loc 1 79 0
 131 00e2 70620388 		e_li %r3,5000
 132 00e6 78000001 		e_bl chThdSleep
 133              	.LVL13:
 134              		.loc 1 82 0
 135 00ea 313F0000 		e_lbz %r9,0(%r31)
 136 00ee 1829A800 		e_cmpi %cr1,%r9,0
 137 00f2 7A06FF52 		e_bne %cr1,.L25
 138              	.L3:
 139              		.loc 1 139 0
 140 00f6 4803     		se_li %r3,0
 141 00f8 78000001 		e_bl chThdExit
 142              	.LVL14:
 143              		.loc 1 142 0
 144 00fc C701     		se_lwz %r0,28(%r1)
 145 00fe 0090     		se_mtlr %r0
 146              		.cfi_remember_state
 147              		.cfi_restore 65
 148 0100 1B810808 		e_lmw %r28,8(%r1)
 149 0104 4803     		se_li %r3,0
 150 0106 2171     		se_addi %r1,24
 151              	.LCFI1:
 152              		.cfi_restore 31
 153              		.cfi_restore 30
 154              		.cfi_restore 29
 155              		.cfi_restore 28
 156              		.cfi_def_cfa_offset 0
 157 0108 0004     		se_blr
 158              	.L5:
 159              	.LCFI2:
 160              		.cfi_restore_state
 161              		.loc 1 93 0
 162 010a 78000001 		e_bl stopcmd
 163              	.LVL15:
 164              		.loc 1 139 0
 165 010e 4803     		se_li %r3,0
 166 0110 78000001 		e_bl chThdExit
 167              	.LVL16:
 168              		.loc 1 142 0
 169 0114 C701     		se_lwz %r0,28(%r1)
 170 0116 0090     		se_mtlr %r0
 171              		.cfi_restore 65
GAS LISTING C:\Users\Saeh\AppData\Local\Temp\ccRg9ywZ.s 			page 4


 172 0118 1B810808 		e_lmw %r28,8(%r1)
 173 011c 4803     		se_li %r3,0
 174 011e 2171     		se_addi %r1,24
 175              	.LCFI3:
 176              		.cfi_restore 28
 177              		.cfi_restore 29
 178              		.cfi_restore 30
 179              		.cfi_restore 31
 180              		.cfi_def_cfa_offset 0
 181 0120 0004     		se_blr
 182              		.cfi_endproc
 183              	.LFE47:
 184              		.size	ThreadFullDemo, .-ThreadFullDemo
 185              		.section	.text.chprintf,"axv",@progbits
 186              		.align 1
 187              		.p2align 4,,15
 188              		.type	chprintf, @function
 189              	chprintf:
 190              	.LFB44:
 191              		.file 2 "./components/chibios_rt_portable_output_formatter_component/lib/include/chprintf.h"
 192              		.loc 2 69 0
 193              		.cfi_startproc
 194              	.LVL17:
 195 0000 182106D0 		e_stwu %r1,-48(%r1)
 196              	.LCFI4:
 197              		.cfi_def_cfa_offset 48
 198 0004 0080     		se_mflr %r0
 199 0006 D651     		se_stw %r5,24(%r1)
 200 0008 DD01     		se_stw %r0,52(%r1)
 201              		.cfi_offset 65, 4
 202              		.loc 2 69 0
 203 000a 55210028 		e_stw %r9,40(%r1)
 204 000e D761     		se_stw %r6,28(%r1)
 205 0010 D871     		se_stw %r7,32(%r1)
 206 0012 55010024 		e_stw %r8,36(%r1)
 207 0016 5541002C 		e_stw %r10,44(%r1)
 208              		.loc 2 72 0
 209 001a 71200002 		e_li %r9,2
 210              		.loc 2 73 0
 211 001e 18A18008 		e_addi %r5,%r1,8
 212              		.loc 2 72 0
 213 0022 35210008 		e_stb %r9,8(%r1)
 214 0026 71200000 		e_li %r9,0
 215 002a 35210009 		e_stb %r9,9(%r1)
 216 002e 19218038 		e_addi %r9,%r1,56
 217 0032 5521000C 		e_stw %r9,12(%r1)
 218 0036 19218010 		e_addi %r9,%r1,16
 219 003a 55210010 		e_stw %r9,16(%r1)
 220              		.loc 2 73 0
 221 003e 78000001 		e_bl chvprintf
 222              	.LVL18:
 223              		.loc 2 75 0
 224 0042 CD01     		se_lwz %r0,52(%r1)
 225 0044 0090     		se_mtlr %r0
 226              		.cfi_restore 65
 227 0046 18218030 		e_addi %r1,%r1,48
 228              	.LCFI5:
GAS LISTING C:\Users\Saeh\AppData\Local\Temp\ccRg9ywZ.s 			page 5


 229              		.cfi_def_cfa_offset 0
 230 004a 0004     		se_blr
 231              		.cfi_endproc
 232              	.LFE44:
 233              		.size	chprintf, .-chprintf
 234              		.section	.text.stopdemo,"axv",@progbits
 235              		.align 1
 236              		.p2align 4,,15
 237              		.globl stopdemo
 238              		.type	stopdemo, @function
 239              	stopdemo:
 240              	.LFB58:
 241              		.loc 1 365 0
 242              		.cfi_startproc
 243              	.LVL19:
 244              		.loc 1 368 0
 245 0000 2A04     		se_cmpi %r4,0
 246 0002 7A02000E 		e_bne %cr0,.L29
 247              		.loc 1 373 0
 248 0006 7120E000 		e_lis %r9,.LANCHOR0@ha
 249 000a 34890000 		e_stb %r4,.LANCHOR0@l(%r9)
 250 000e 0004     		se_blr
 251              	.L29:
 252              		.loc 1 369 0
 253 0010 7080E000 		e_lis %r4,.LC1@ha
 254              	.LVL20:
 255              		.loc 1 374 0
 256              		.loc 1 369 0
 257 0014 1C840000 		e_la %r4,.LC1@l(%r4)
 258 0018 78000000 		e_b chprintf
 259              	.LVL21:
 260              		.cfi_endproc
 261              	.LFE58:
 262              		.size	stopdemo, .-stopdemo
 263              		.section	.text.cmd_mem,"axv",@progbits
 264              		.align 1
 265              		.p2align 4,,15
 266              		.globl cmd_mem
 267              		.type	cmd_mem, @function
 268              	cmd_mem:
 269              	.LFB48:
 270              		.loc 1 147 0
 271              		.cfi_startproc
 272              	.LVL22:
 273 0000 182106E0 		e_stwu %r1,-32(%r1)
 274              	.LCFI6:
 275              		.cfi_def_cfa_offset 32
 276 0004 0080     		se_mflr %r0
 277 0006 1BC10918 		e_stmw %r30,24(%r1)
 278 000a D901     		se_stw %r0,36(%r1)
 279              		.cfi_offset 65, 4
 280              		.cfi_offset 30, -8
 281              		.cfi_offset 31, -4
 282              		.loc 1 147 0
 283 000c 013F     		se_mr %r31,%r3
 284              		.loc 1 151 0
 285 000e 1824A800 		e_cmpi %cr1,%r4,0
GAS LISTING C:\Users\Saeh\AppData\Local\Temp\ccRg9ywZ.s 			page 6


 286 0012 7A05001C 		e_ble %cr1,.L31
 287              		.loc 1 152 0
 288 0016 7080E000 		e_lis %r4,.LC2@ha
 289              	.LVL23:
 290 001a 1C840000 		e_la %r4,.LC2@l(%r4)
 291 001e 78000001 		e_bl chprintf
 292              	.LVL24:
 293              		.loc 1 159 0
 294 0022 C901     		se_lwz %r0,36(%r1)
 295 0024 0090     		se_mtlr %r0
 296              		.cfi_remember_state
 297              		.cfi_restore 65
 298 0026 1BC10818 		e_lmw %r30,24(%r1)
 299              	.LVL25:
 300 002a 21F1     		se_addi %r1,32
 301              	.LCFI7:
 302              		.cfi_restore 31
 303              		.cfi_restore 30
 304              		.cfi_def_cfa_offset 0
 305 002c 0004     		se_blr
 306              	.LVL26:
 307              	.L31:
 308              	.LCFI8:
 309              		.cfi_restore_state
 310              	.LBB4:
 311              	.LBB5:
 312              		.loc 1 155 0
 313 002e 18818008 		e_addi %r4,%r1,8
 314              	.LVL27:
 315 0032 4803     		se_li %r3,0
 316              	.LVL28:
 317 0034 78000001 		e_bl chHeapStatus
 318              	.LVL29:
 319 0038 013E     		se_mr %r30,%r3
 320              	.LVL30:
 321              		.loc 1 156 0
 322 003a 78000001 		e_bl chCoreStatus
 323              	.LVL31:
 324 003e 7080E000 		e_lis %r4,.LC3@ha
 325 0042 0135     		se_mr %r5,%r3
 326 0044 1C840000 		e_la %r4,.LC3@l(%r4)
 327 0048 01F3     		se_mr %r3,%r31
 328 004a 78000001 		e_bl chprintf
 329              	.LVL32:
 330              		.loc 1 157 0
 331 004e 01F3     		se_mr %r3,%r31
 332 0050 01E5     		se_mr %r5,%r30
 333 0052 7080E000 		e_lis %r4,.LC4@ha
 334 0056 1C840000 		e_la %r4,.LC4@l(%r4)
 335 005a 78000001 		e_bl chprintf
 336              	.LVL33:
 337              		.loc 1 158 0
 338 005e 01F3     		se_mr %r3,%r31
 339 0060 C251     		se_lwz %r5,8(%r1)
 340 0062 7080E000 		e_lis %r4,.LC5@ha
 341 0066 1C840000 		e_la %r4,.LC5@l(%r4)
 342 006a 78000001 		e_bl chprintf
GAS LISTING C:\Users\Saeh\AppData\Local\Temp\ccRg9ywZ.s 			page 7


 343              	.LVL34:
 344              	.LBE5:
 345              	.LBE4:
 346              		.loc 1 159 0
 347 006e C901     		se_lwz %r0,36(%r1)
 348 0070 0090     		se_mtlr %r0
 349              		.cfi_restore 65
 350 0072 1BC10818 		e_lmw %r30,24(%r1)
 351              	.LVL35:
 352 0076 21F1     		se_addi %r1,32
 353              	.LCFI9:
 354              		.cfi_restore 30
 355              		.cfi_restore 31
 356              		.cfi_def_cfa_offset 0
 357 0078 0004     		se_blr
 358              		.cfi_endproc
 359              	.LFE48:
 360              		.size	cmd_mem, .-cmd_mem
 361              		.section	.text.stopgps,"axv",@progbits
 362              		.align 1
 363              		.p2align 4,,15
 364              		.globl stopgps
 365              		.type	stopgps, @function
 366              	stopgps:
 367              	.LFB52:
 368              		.loc 1 232 0
 369              		.cfi_startproc
 370              	.LVL36:
 371 0000 182106F0 		e_stwu %r1,-16(%r1)
 372              	.LCFI10:
 373              		.cfi_def_cfa_offset 16
 374 0004 0080     		se_mflr %r0
 375 0006 1BC10908 		e_stmw %r30,8(%r1)
 376 000a D501     		se_stw %r0,20(%r1)
 377              		.cfi_offset 65, 4
 378              		.cfi_offset 30, -8
 379              		.cfi_offset 31, -4
 380              		.loc 1 235 0
 381 000c 1824A800 		e_cmpi %cr1,%r4,0
 382 0010 7A150020 		e_bgt %cr1,.L42
 383              	.LVL37:
 384              	.LBB8:
 385              	.LBB9:
 386              		.loc 1 243 0
 387 0014 73E0E000 		e_lis %r31,bGpsRunning@ha
 388 0018 313F0000 		e_lbz %r9,bGpsRunning@l(%r31)
 389 001c 1829A800 		e_cmpi %cr1,%r9,0
 390 0020 7A060026 		e_bne %cr1,.L43
 391              	.LVL38:
 392              	.L33:
 393              	.LBE9:
 394              	.LBE8:
 395              		.loc 1 250 0
 396 0024 C501     		se_lwz %r0,20(%r1)
 397 0026 0090     		se_mtlr %r0
 398              		.cfi_remember_state
 399              		.cfi_restore 65
GAS LISTING C:\Users\Saeh\AppData\Local\Temp\ccRg9ywZ.s 			page 8


 400 0028 1BC10808 		e_lmw %r30,8(%r1)
 401 002c 20F1     		se_addi %r1,16
 402              	.LCFI11:
 403              		.cfi_restore 31
 404              		.cfi_restore 30
 405              		.cfi_def_cfa_offset 0
 406 002e 0004     		se_blr
 407              	.LVL39:
 408              	.L42:
 409              	.LCFI12:
 410              		.cfi_restore_state
 411 0030 C501     		se_lwz %r0,20(%r1)
 412 0032 1BC10808 		e_lmw %r30,8(%r1)
 413              		.loc 1 236 0
 414 0036 7080E000 		e_lis %r4,.LC6@ha
 415              	.LVL40:
 416              		.loc 1 250 0
 417              		.loc 1 236 0
 418 003a 1C840000 		e_la %r4,.LC6@l(%r4)
 419              		.loc 1 250 0
 420 003e 0090     		se_mtlr %r0
 421              		.cfi_remember_state
 422              		.cfi_restore 65
 423 0040 20F1     		se_addi %r1,16
 424              	.LCFI13:
 425              		.cfi_restore 31
 426              		.cfi_restore 30
 427              		.cfi_def_cfa_offset 0
 428              	.LBB14:
 429              	.LBB10:
 430              		.loc 1 248 0
 431 0042 78000000 		e_b chprintf
 432              	.LVL41:
 433              	.L43:
 434              	.LCFI14:
 435              		.cfi_restore_state
 436              		.loc 1 244 0
 437 0046 71200000 		e_li %r9,0
 438 004a 013E     		se_mr %r30,%r3
 439 004c 353F0000 		e_stb %r9,bGpsRunning@l(%r31)
 440              		.loc 1 245 0
 441 0050 7080E000 		e_lis %r4,.LC7@ha
 442              	.LVL42:
 443 0054 1C840000 		e_la %r4,.LC7@l(%r4)
 444 0058 78000001 		e_bl chprintf
 445              	.LVL43:
 446              		.loc 1 247 0
 447 005c 313F0000 		e_lbz %r9,bGpsRunning@l(%r31)
 448 0060 1829A800 		e_cmpi %cr1,%r9,0
 449 0064 7A16FFC0 		e_beq %cr1,.L33
 450              	.LBE10:
 451              	.LBE14:
 452              		.loc 1 250 0
 453 0068 C501     		se_lwz %r0,20(%r1)
 454              	.LBB15:
 455              	.LBB11:
 456              		.loc 1 248 0
GAS LISTING C:\Users\Saeh\AppData\Local\Temp\ccRg9ywZ.s 			page 9


 457 006a 01E3     		se_mr %r3,%r30
 458 006c 7080E000 		e_lis %r4,.LC8@ha
 459              	.LBE11:
 460              	.LBE15:
 461              		.loc 1 250 0
 462 0070 1BC10808 		e_lmw %r30,8(%r1)
 463              	.LVL44:
 464              	.LBB16:
 465              	.LBB12:
 466              		.loc 1 248 0
 467 0074 1C840000 		e_la %r4,.LC8@l(%r4)
 468              	.LBE12:
 469              	.LBE16:
 470              		.loc 1 250 0
 471 0078 0090     		se_mtlr %r0
 472              		.cfi_restore 65
 473 007a 20F1     		se_addi %r1,16
 474              	.LCFI15:
 475              		.cfi_restore 30
 476              		.cfi_restore 31
 477              		.cfi_def_cfa_offset 0
 478              	.LBB17:
 479              	.LBB13:
 480              		.loc 1 248 0
 481 007c 78000000 		e_b chprintf
 482              	.LVL45:
 483              	.LBE13:
 484              	.LBE17:
 485              		.cfi_endproc
 486              	.LFE52:
 487              		.size	stopgps, .-stopgps
 488              		.section	.text.speed,"axv",@progbits
 489              		.align 1
 490              		.p2align 4,,15
 491              		.globl speed
 492              		.type	speed, @function
 493              	speed:
 494              	.LFB53:
 495              		.loc 1 255 0
 496              		.cfi_startproc
 497              	.LVL46:
 498              		.loc 1 258 0
 499 0000 1824A800 		e_cmpi %cr1,%r4,0
 500 0004 7A050010 		e_ble %cr1,.L45
 501              		.loc 1 259 0
 502 0008 7080E000 		e_lis %r4,.LC9@ha
 503              	.LVL47:
 504              		.loc 1 267 0
 505              		.loc 1 259 0
 506 000c 1C840000 		e_la %r4,.LC9@l(%r4)
 507 0010 78000000 		e_b chprintf
 508              	.LVL48:
 509              	.L45:
 510              	.LBB20:
 511              	.LBB21:
 512              		.loc 1 266 0
 513 0014 7080E000 		e_lis %r4,.LC10@ha
GAS LISTING C:\Users\Saeh\AppData\Local\Temp\ccRg9ywZ.s 			page 10


 514              	.LVL49:
 515 0018 7120E000 		e_lis %r9,counter@ha
 516 001c 1C840000 		e_la %r4,.LC10@l(%r4)
 517 0020 50A90000 		e_lwz %r5,counter@l(%r9)
 518              	.LVL50:
 519              	.LBE21:
 520              	.LBE20:
 521              		.loc 1 267 0
 522              	.LBB23:
 523              	.LBB22:
 524              		.loc 1 266 0
 525 0024 78000000 		e_b chprintf
 526              	.LVL51:
 527              	.LBE22:
 528              	.LBE23:
 529              		.cfi_endproc
 530              	.LFE53:
 531              		.size	speed, .-speed
 532              		.section	.text.cmd_threads,"axv",@progbits
 533              		.align 1
 534              		.p2align 4,,15
 535              		.globl cmd_threads
 536              		.type	cmd_threads, @function
 537              	cmd_threads:
 538              	.LFB49:
 539              		.loc 1 164 0
 540              		.cfi_startproc
 541              	.LVL52:
 542 0000 182106E8 		e_stwu %r1,-24(%r1)
 543              	.LCFI16:
 544              		.cfi_def_cfa_offset 24
 545 0004 0080     		se_mflr %r0
 546 0006 1B810908 		e_stmw %r28,8(%r1)
 547 000a D701     		se_stw %r0,28(%r1)
 548              		.cfi_offset 65, 4
 549              		.cfi_offset 28, -16
 550              		.cfi_offset 29, -12
 551              		.cfi_offset 30, -8
 552              		.cfi_offset 31, -4
 553              		.loc 1 164 0
 554 000c 013E     		se_mr %r30,%r3
 555              		.loc 1 169 0
 556 000e 1824A800 		e_cmpi %cr1,%r4,0
 557 0012 7A05001A 		e_ble %cr1,.L47
 558              		.loc 1 182 0
 559 0016 C701     		se_lwz %r0,28(%r1)
 560 0018 1B810808 		e_lmw %r28,8(%r1)
 561              		.loc 1 170 0
 562 001c 7080E000 		e_lis %r4,.LC11@ha
 563              	.LVL53:
 564              		.loc 1 182 0
 565              		.loc 1 170 0
 566 0020 1C840000 		e_la %r4,.LC11@l(%r4)
 567              		.loc 1 182 0
 568 0024 0090     		se_mtlr %r0
 569              		.cfi_remember_state
 570              		.cfi_restore 65
GAS LISTING C:\Users\Saeh\AppData\Local\Temp\ccRg9ywZ.s 			page 11


 571 0026 2171     		se_addi %r1,24
 572              	.LCFI17:
 573              		.cfi_restore 31
 574              		.cfi_restore 30
 575              		.cfi_restore 29
 576              		.cfi_restore 28
 577              		.cfi_def_cfa_offset 0
 578              		.loc 1 170 0
 579 0028 78000000 		e_b chprintf
 580              	.LVL54:
 581              	.L47:
 582              	.LCFI18:
 583              		.cfi_restore_state
 584              	.LBB26:
 585              	.LBB27:
 586              		.loc 1 173 0
 587 002c 7080E000 		e_lis %r4,.LC12@ha
 588              	.LVL55:
 589 0030 7380E000 		e_lis %r28,.LC13@ha
 590 0034 1C840000 		e_la %r4,.LC12@l(%r4)
 591 0038 73A0E000 		e_lis %r29,.LANCHOR1@ha
 592 003c 78000001 		e_bl chprintf
 593              	.LVL56:
 594 0040 1F9C0000 		e_la %r28,.LC13@l(%r28)
 595              		.loc 1 174 0
 596 0044 78000001 		e_bl chRegFirstThread
 597              	.LVL57:
 598 0048 1FBD0000 		e_la %r29,.LANCHOR1@l(%r29)
 599 004c 013F     		se_mr %r31,%r3
 600              	.LVL58:
 601              	.L48:
 602              		.loc 1 176 0
 603 004e 515F0020 		e_lwz %r10,32(%r31)
 604              		.loc 1 178 0
 605 0052 311F001E 		e_lbz %r8,30(%r31)
 606              		.loc 1 176 0
 607 0056 313F001C 		e_lbz %r9,28(%r31)
 608 005a 01F5     		se_mr %r5,%r31
 609 005c C36F     		se_lwz %r6,12(%r31)
 610 005e C27F     		se_lwz %r7,8(%r31)
 611 0060 01E3     		se_mr %r3,%r30
 612              	.LVL59:
 613 0062 01C4     		se_mr %r4,%r28
 614 0064 190884FF 		e_addi %r8,%r8,-1
 615 0068 7D291070 		e_slwi %r9,%r9,2
 616 006c 7D3D482E 		lwzx %r9,%r29,%r9
 617 0070 78000001 		e_bl chprintf
 618              	.LVL60:
 619              		.loc 1 180 0
 620 0074 01F3     		se_mr %r3,%r31
 621 0076 78000001 		e_bl chRegNextThread
 622              	.LVL61:
 623              		.loc 1 181 0
 624 007a 013F     		se_mr %r31,%r3
 625 007c 2A0F     		se_cmpi %r31,0
 626 007e 7A02FFD0 		e_bne %cr0,.L48
 627              	.LBE27:
GAS LISTING C:\Users\Saeh\AppData\Local\Temp\ccRg9ywZ.s 			page 12


 628              	.LBE26:
 629              		.loc 1 182 0
 630 0082 C701     		se_lwz %r0,28(%r1)
 631 0084 0090     		se_mtlr %r0
 632              		.cfi_restore 65
 633 0086 1B810808 		e_lmw %r28,8(%r1)
 634              	.LVL62:
 635 008a 2171     		se_addi %r1,24
 636              	.LCFI19:
 637              		.cfi_restore 31
 638              		.cfi_restore 30
 639              		.cfi_restore 29
 640              		.cfi_restore 28
 641              		.cfi_def_cfa_offset 0
 642 008c 0004     		se_blr
 643              		.cfi_endproc
 644              	.LFE49:
 645              		.size	cmd_threads, .-cmd_threads
 646              		.section	.text.startgps,"axv",@progbits
 647              		.align 1
 648              		.p2align 4,,15
 649              		.globl startgps
 650              		.type	startgps, @function
 651              	startgps:
 652              	.LFB51:
 653              		.loc 1 207 0
 654              		.cfi_startproc
 655              	.LVL63:
 656 0000 182106F8 		e_stwu %r1,-8(%r1)
 657              	.LCFI20:
 658              		.cfi_def_cfa_offset 8
 659 0004 0080     		se_mflr %r0
 660              		.loc 1 210 0
 661 0006 1824A800 		e_cmpi %cr1,%r4,0
 662              		.loc 1 207 0
 663 000a D301     		se_stw %r0,12(%r1)
 664              		.cfi_offset 65, 4
 665              		.loc 1 210 0
 666 000c 7A15006C 		e_bgt %cr1,.L56
 667              		.loc 1 218 0
 668 0010 7140E000 		e_lis %r10,bGpsRunning@ha
 669 0014 312A0000 		e_lbz %r9,bGpsRunning@l(%r10)
 670 0018 1829A800 		e_cmpi %cr1,%r9,0
 671 001c 7A160016 		e_beq %cr1,.L57
 672              		.loc 1 227 0
 673 0020 C301     		se_lwz %r0,12(%r1)
 674              		.loc 1 225 0
 675 0022 7080E000 		e_lis %r4,.LC16@ha
 676              	.LVL64:
 677              		.loc 1 227 0
 678              		.loc 1 225 0
 679 0026 1C840000 		e_la %r4,.LC16@l(%r4)
 680              		.loc 1 227 0
 681 002a 0090     		se_mtlr %r0
 682              		.cfi_remember_state
 683              		.cfi_restore 65
 684 002c 2071     		se_addi %r1,8
GAS LISTING C:\Users\Saeh\AppData\Local\Temp\ccRg9ywZ.s 			page 13


 685              	.LCFI21:
 686              		.cfi_def_cfa_offset 0
 687              		.loc 1 225 0
 688 002e 78000000 		e_b chprintf
 689              	.LVL65:
 690              	.L57:
 691              	.LCFI22:
 692              		.cfi_restore_state
 693              	.LBB30:
 694              	.LBB31:
 695              		.loc 1 219 0
 696 0032 71200001 		e_li %r9,1
 697              		.loc 1 220 0
 698 0036 7080E000 		e_lis %r4,.LC15@ha
 699              	.LVL66:
 700              		.loc 1 219 0
 701 003a 352A0000 		e_stb %r9,bGpsRunning@l(%r10)
 702              		.loc 1 220 0
 703 003e 1C840000 		e_la %r4,.LC15@l(%r4)
 704 0042 78000001 		e_bl chprintf
 705              	.LVL67:
 706              		.loc 1 221 0
 707 0046 7060E000 		e_lis %r3,waThreadGPS@ha
 708 004a 70800268 		e_li %r4,616
 709 004e 1C630000 		e_la %r3,waThreadGPS@l(%r3)
 710 0052 4C05     		se_li %r5,64
 711 0054 70C0E000 		e_lis %r6,ThreadGPS@ha
 712 0058 70E0E000 		e_lis %r7,SD2@ha
 713 005c 1CC60000 		e_la %r6,ThreadGPS@l(%r6)
 714 0060 1CE70000 		e_la %r7,SD2@l(%r7)
 715 0064 78000001 		e_bl chThdCreateStatic
 716              	.LVL68:
 717              	.LBE31:
 718              	.LBE30:
 719              		.loc 1 227 0
 720 0068 C301     		se_lwz %r0,12(%r1)
 721 006a 0090     		se_mtlr %r0
 722              		.cfi_remember_state
 723              		.cfi_restore 65
 724              	.LBB34:
 725              	.LBB32:
 726              		.loc 1 221 0
 727 006c 7120E000 		e_lis %r9,tpgps@ha
 728              	.LBE32:
 729              	.LBE34:
 730              		.loc 1 227 0
 731              	.LBB35:
 732              	.LBB33:
 733              		.loc 1 221 0
 734 0070 54690000 		e_stw %r3,tpgps@l(%r9)
 735              	.LBE33:
 736              	.LBE35:
 737              		.loc 1 227 0
 738 0074 2071     		se_addi %r1,8
 739              	.LCFI23:
 740              		.cfi_def_cfa_offset 0
 741 0076 0004     		se_blr
GAS LISTING C:\Users\Saeh\AppData\Local\Temp\ccRg9ywZ.s 			page 14


 742              	.LVL69:
 743              	.L56:
 744              	.LCFI24:
 745              		.cfi_restore_state
 746 0078 C301     		se_lwz %r0,12(%r1)
 747              		.loc 1 211 0
 748 007a 7080E000 		e_lis %r4,.LC14@ha
 749              	.LVL70:
 750              		.loc 1 227 0
 751              		.loc 1 211 0
 752 007e 1C840000 		e_la %r4,.LC14@l(%r4)
 753              		.loc 1 227 0
 754 0082 0090     		se_mtlr %r0
 755              		.cfi_restore 65
 756 0084 2071     		se_addi %r1,8
 757              	.LCFI25:
 758              		.cfi_def_cfa_offset 0
 759              		.loc 1 225 0
 760 0086 78000000 		e_b chprintf
 761              	.LVL71:
 762              		.cfi_endproc
 763              	.LFE51:
 764              		.size	startgps, .-startgps
 765              		.section	.text.startdemo,"axv",@progbits
 766              		.align 1
 767              		.p2align 4,,15
 768              		.globl startdemo
 769              		.type	startdemo, @function
 770              	startdemo:
 771              	.LFB57:
 772              		.loc 1 340 0
 773              		.cfi_startproc
 774              	.LVL72:
 775              		.loc 1 340 0
 776 0000 0137     		se_mr %r7,%r3
 777              		.loc 1 343 0
 778 0002 1824A800 		e_cmpi %cr1,%r4,0
 779 0006 7A060042 		e_bne %cr1,.L61
 780              		.loc 1 348 0
 781 000a 7140E000 		e_lis %r10,.LANCHOR0@ha
 782 000e 312A0000 		e_lbz %r9,.LANCHOR0@l(%r10)
 783 0012 1829A800 		e_cmpi %cr1,%r9,0
 784 0016 7A160010 		e_beq %cr1,.L62
 785              		.loc 1 357 0
 786 001a 7080E000 		e_lis %r4,.LC18@ha
 787              	.LVL73:
 788              		.loc 1 360 0
 789              		.loc 1 357 0
 790 001e 1C840000 		e_la %r4,.LC18@l(%r4)
 791 0022 78000000 		e_b chprintf
 792              	.LVL74:
 793              	.L62:
 794              	.LBB38:
 795              	.LBB39:
 796              		.loc 1 349 0
 797 0026 71200001 		e_li %r9,1
 798              		.loc 1 353 0
GAS LISTING C:\Users\Saeh\AppData\Local\Temp\ccRg9ywZ.s 			page 15


 799 002a 7060E000 		e_lis %r3,.LANCHOR2@ha
 800              	.LVL75:
 801 002e 70C0E000 		e_lis %r6,ThreadFullDemo@ha
 802              		.loc 1 349 0
 803 0032 352A0000 		e_stb %r9,.LANCHOR0@l(%r10)
 804              		.loc 1 353 0
 805 0036 1C630000 		e_la %r3,.LANCHOR2@l(%r3)
 806 003a 70800268 		e_li %r4,616
 807              	.LVL76:
 808 003e 4C05     		se_li %r5,64
 809              	.LVL77:
 810 0040 1CC60000 		e_la %r6,ThreadFullDemo@l(%r6)
 811              	.LBE39:
 812              	.LBE38:
 813              		.loc 1 360 0
 814              	.LBB41:
 815              	.LBB40:
 816              		.loc 1 353 0
 817 0044 78000000 		e_b chThdCreateStatic
 818              	.LVL78:
 819              	.L61:
 820              	.LBE40:
 821              	.LBE41:
 822              		.loc 1 344 0
 823 0048 7080E000 		e_lis %r4,.LC17@ha
 824              	.LVL79:
 825              		.loc 1 360 0
 826              		.loc 1 344 0
 827 004c 1C840000 		e_la %r4,.LC17@l(%r4)
 828 0050 78000000 		e_b chprintf
 829              	.LVL80:
 830              		.cfi_endproc
 831              	.LFE57:
 832              		.size	startdemo, .-startdemo
 833              		.section	.text.drive,"axv",@progbits
 834              		.align 1
 835              		.p2align 4,,15
 836              		.globl drive
 837              		.type	drive, @function
 838              	drive:
 839              	.LFB54:
 840              		.loc 1 272 0
 841              		.cfi_startproc
 842              	.LVL81:
 843 0000 182106E8 		e_stwu %r1,-24(%r1)
 844              	.LCFI26:
 845              		.cfi_def_cfa_offset 24
 846 0004 0080     		se_mflr %r0
 847 0006 1BA1090C 		e_stmw %r29,12(%r1)
 848 000a D701     		se_stw %r0,28(%r1)
 849              		.cfi_offset 65, 4
 850              		.cfi_offset 29, -12
 851              		.cfi_offset 30, -8
 852              		.cfi_offset 31, -4
 853              		.loc 1 278 0
 854 000c 1824A802 		e_cmpi %cr1,%r4,2
 855 0010 7A16001A 		e_beq %cr1,.L64
GAS LISTING C:\Users\Saeh\AppData\Local\Temp\ccRg9ywZ.s 			page 16


 856              		.loc 1 293 0
 857 0014 C701     		se_lwz %r0,28(%r1)
 858 0016 1BA1080C 		e_lmw %r29,12(%r1)
 859              		.loc 1 279 0
 860 001a 7080E000 		e_lis %r4,.LC19@ha
 861              	.LVL82:
 862              		.loc 1 293 0
 863              		.loc 1 279 0
 864 001e 1C840000 		e_la %r4,.LC19@l(%r4)
 865              		.loc 1 293 0
 866 0022 0090     		se_mtlr %r0
 867              		.cfi_remember_state
 868              		.cfi_restore 65
 869 0024 2171     		se_addi %r1,24
 870              	.LCFI27:
 871              		.cfi_restore 31
 872              		.cfi_restore 30
 873              		.cfi_restore 29
 874              		.cfi_def_cfa_offset 0
 875              	.LBB44:
 876              	.LBB45:
 877              		.loc 1 287 0
 878 0026 78000000 		e_b chprintf
 879              	.LVL83:
 880              	.L64:
 881              	.LCFI28:
 882              		.cfi_restore_state
 883 002a 015F     		se_mr %r31,%r5
 884 002c 013E     		se_mr %r30,%r3
 885              	.LVL84:
 886              		.loc 1 283 0
 887 002e C035     		se_lwz %r3,0(%r5)
 888              	.LVL85:
 889 0030 78000001 		e_bl atoi
 890              	.LVL86:
 891 0034 013D     		se_mr %r29,%r3
 892              	.LVL87:
 893              		.loc 1 284 0
 894 0036 C13F     		se_lwz %r3,4(%r31)
 895              	.LVL88:
 896 0038 78000001 		e_bl atoi
 897              	.LVL89:
 898 003c 0134     		se_mr %r4,%r3
 899              	.LVL90:
 900              		.loc 1 286 0
 901 003e 7083AF10 		e_cmpl16i %r3,10000
 902 0042 7A110014 		e_bgt %cr0,.L67
 903              	.LBE45:
 904              	.LBE44:
 905              		.loc 1 293 0
 906 0046 C701     		se_lwz %r0,28(%r1)
 907              	.LBB51:
 908              	.LBB46:
 909              		.loc 1 290 0
 910 0048 01D3     		se_mr %r3,%r29
 911              	.LVL91:
 912              	.LBE46:
GAS LISTING C:\Users\Saeh\AppData\Local\Temp\ccRg9ywZ.s 			page 17


 913              	.LBE51:
 914              		.loc 1 293 0
 915 004a 0090     		se_mtlr %r0
 916              		.cfi_remember_state
 917              		.cfi_restore 65
 918 004c 1BA1080C 		e_lmw %r29,12(%r1)
 919              	.LVL92:
 920 0050 2171     		se_addi %r1,24
 921              	.LCFI29:
 922              		.cfi_restore 31
 923              		.cfi_restore 30
 924              		.cfi_restore 29
 925              		.cfi_def_cfa_offset 0
 926              	.LBB52:
 927              	.LBB47:
 928              		.loc 1 290 0
 929 0052 78000000 		e_b drivecmd
 930              	.LVL93:
 931              	.L67:
 932              	.LCFI30:
 933              		.cfi_restore_state
 934              	.LBE47:
 935              	.LBE52:
 936              		.loc 1 293 0
 937 0056 C701     		se_lwz %r0,28(%r1)
 938              	.LBB53:
 939              	.LBB48:
 940              		.loc 1 287 0
 941 0058 01E3     		se_mr %r3,%r30
 942              	.LVL94:
 943 005a 7080E000 		e_lis %r4,.LC20@ha
 944              	.LVL95:
 945              	.LBE48:
 946              	.LBE53:
 947              		.loc 1 293 0
 948 005e 1BA1080C 		e_lmw %r29,12(%r1)
 949              	.LVL96:
 950              	.LBB54:
 951              	.LBB49:
 952              		.loc 1 287 0
 953 0062 1C840000 		e_la %r4,.LC20@l(%r4)
 954              	.LBE49:
 955              	.LBE54:
 956              		.loc 1 293 0
 957 0066 0090     		se_mtlr %r0
 958              		.cfi_restore 65
 959 0068 2171     		se_addi %r1,24
 960              	.LCFI31:
 961              		.cfi_restore 29
 962              		.cfi_restore 30
 963              		.cfi_restore 31
 964              		.cfi_def_cfa_offset 0
 965              	.LBB55:
 966              	.LBB50:
 967              		.loc 1 287 0
 968 006a 78000000 		e_b chprintf
 969              	.LVL97:
GAS LISTING C:\Users\Saeh\AppData\Local\Temp\ccRg9ywZ.s 			page 18


 970              	.LBE50:
 971              	.LBE55:
 972              		.cfi_endproc
 973              	.LFE54:
 974              		.size	drive, .-drive
 975              		.section	.text.turn,"axv",@progbits
 976              		.align 1
 977              		.p2align 4,,15
 978              		.globl turn
 979              		.type	turn, @function
 980              	turn:
 981              	.LFB55:
 982              		.loc 1 298 0
 983              		.cfi_startproc
 984              	.LVL98:
 985 0000 182106F8 		e_stwu %r1,-8(%r1)
 986              	.LCFI32:
 987              		.cfi_def_cfa_offset 8
 988 0004 0080     		se_mflr %r0
 989              		.loc 1 303 0
 990 0006 1824A801 		e_cmpi %cr1,%r4,1
 991              		.loc 1 298 0
 992 000a D301     		se_stw %r0,12(%r1)
 993              		.cfi_offset 65, 4
 994              		.loc 1 303 0
 995 000c 7A160016 		e_beq %cr1,.L69
 996              		.loc 1 312 0
 997 0010 C301     		se_lwz %r0,12(%r1)
 998              		.loc 1 304 0
 999 0012 7080E000 		e_lis %r4,.LC21@ha
 1000              	.LVL99:
 1001              		.loc 1 312 0
 1002              		.loc 1 304 0
 1003 0016 1C840000 		e_la %r4,.LC21@l(%r4)
 1004              		.loc 1 312 0
 1005 001a 0090     		se_mtlr %r0
 1006              		.cfi_remember_state
 1007              		.cfi_restore 65
 1008 001c 2071     		se_addi %r1,8
 1009              	.LCFI33:
 1010              		.cfi_def_cfa_offset 0
 1011              		.loc 1 304 0
 1012 001e 78000000 		e_b chprintf
 1013              	.LVL100:
 1014              	.L69:
 1015              	.LCFI34:
 1016              		.cfi_restore_state
 1017              	.LBB58:
 1018              	.LBB59:
 1019              		.loc 1 308 0
 1020 0022 C035     		se_lwz %r3,0(%r5)
 1021              	.LVL101:
 1022 0024 78000001 		e_bl atoi
 1023              	.LVL102:
 1024              	.LBE59:
 1025              	.LBE58:
 1026              		.loc 1 312 0
GAS LISTING C:\Users\Saeh\AppData\Local\Temp\ccRg9ywZ.s 			page 19


 1027 0028 C301     		se_lwz %r0,12(%r1)
 1028 002a 0090     		se_mtlr %r0
 1029              		.cfi_restore 65
 1030 002c 2071     		se_addi %r1,8
 1031              	.LCFI35:
 1032              		.cfi_def_cfa_offset 0
 1033              	.LBB61:
 1034              	.LBB60:
 1035              		.loc 1 311 0
 1036 002e 78000000 		e_b turncmd
 1037              	.LVL103:
 1038              	.LBE60:
 1039              	.LBE61:
 1040              		.cfi_endproc
 1041              	.LFE55:
 1042              		.size	turn, .-turn
 1043              		.section	.text.blink,"axv",@progbits
 1044              		.align 1
 1045              		.p2align 4,,15
 1046              		.globl blink
 1047              		.type	blink, @function
 1048              	blink:
 1049              	.LFB56:
 1050              		.loc 1 317 0
 1051              		.cfi_startproc
 1052              	.LVL104:
 1053 0000 182106F8 		e_stwu %r1,-8(%r1)
 1054              	.LCFI36:
 1055              		.cfi_def_cfa_offset 8
 1056 0004 0080     		se_mflr %r0
 1057              		.loc 1 322 0
 1058 0006 1824A800 		e_cmpi %cr1,%r4,0
 1059              		.loc 1 317 0
 1060 000a D301     		se_stw %r0,12(%r1)
 1061              		.cfi_offset 65, 4
 1062              		.loc 1 322 0
 1063 000c 7A160034 		e_beq %cr1,.L74
 1064              	.LVL105:
 1065              	.LBB64:
 1066              	.LBB65:
 1067              		.loc 1 327 0
 1068 0010 C035     		se_lwz %r3,0(%r5)
 1069              	.LVL106:
 1070 0012 78000001 		e_bl atoi
 1071              	.LVL107:
 1072              		.loc 1 329 0
 1073 0016 2A03     		se_cmpi %r3,0
 1074 0018 7A020014 		e_bne %cr0,.L75
 1075              	.LBE65:
 1076              	.LBE64:
 1077              		.loc 1 335 0
 1078 001c C301     		se_lwz %r0,12(%r1)
 1079 001e 0090     		se_mtlr %r0
 1080              		.cfi_remember_state
 1081              		.cfi_restore 65
 1082              	.LBB70:
 1083              	.LBB66:
GAS LISTING C:\Users\Saeh\AppData\Local\Temp\ccRg9ywZ.s 			page 20


 1084              		.loc 1 333 0
 1085 0020 7120E000 		e_lis %r9,bLightOn@ha
 1086              	.LBE66:
 1087              	.LBE70:
 1088              		.loc 1 335 0
 1089              	.LBB71:
 1090              	.LBB67:
 1091              		.loc 1 333 0
 1092 0024 34690000 		e_stb %r3,bLightOn@l(%r9)
 1093              	.LBE67:
 1094              	.LBE71:
 1095              		.loc 1 335 0
 1096 0028 2071     		se_addi %r1,8
 1097              	.LCFI37:
 1098              		.cfi_def_cfa_offset 0
 1099 002a 0004     		se_blr
 1100              	.L75:
 1101              	.LCFI38:
 1102              		.cfi_restore_state
 1103 002c C301     		se_lwz %r0,12(%r1)
 1104 002e 0090     		se_mtlr %r0
 1105              		.cfi_remember_state
 1106              		.cfi_restore 65
 1107              	.LBB72:
 1108              	.LBB68:
 1109              		.loc 1 330 0
 1110 0030 71400001 		e_li %r10,1
 1111 0034 7120E000 		e_lis %r9,bLightOn@ha
 1112              	.LBE68:
 1113              	.LBE72:
 1114              		.loc 1 335 0
 1115              	.LBB73:
 1116              	.LBB69:
 1117              		.loc 1 330 0
 1118 0038 35490000 		e_stb %r10,bLightOn@l(%r9)
 1119              	.LBE69:
 1120              	.LBE73:
 1121              		.loc 1 335 0
 1122 003c 2071     		se_addi %r1,8
 1123              	.LCFI39:
 1124              		.cfi_def_cfa_offset 0
 1125 003e 0004     		se_blr
 1126              	.LVL108:
 1127              	.L74:
 1128              	.LCFI40:
 1129              		.cfi_restore_state
 1130 0040 C301     		se_lwz %r0,12(%r1)
 1131              		.loc 1 323 0
 1132 0042 7080E000 		e_lis %r4,.LC22@ha
 1133              	.LVL109:
 1134              		.loc 1 335 0
 1135              		.loc 1 323 0
 1136 0046 1C840000 		e_la %r4,.LC22@l(%r4)
 1137              		.loc 1 335 0
 1138 004a 0090     		se_mtlr %r0
 1139              		.cfi_restore 65
 1140 004c 2071     		se_addi %r1,8
GAS LISTING C:\Users\Saeh\AppData\Local\Temp\ccRg9ywZ.s 			page 21


 1141              	.LCFI41:
 1142              		.cfi_def_cfa_offset 0
 1143              		.loc 1 323 0
 1144 004e 78000000 		e_b chprintf
 1145              	.LVL110:
 1146              		.cfi_endproc
 1147              	.LFE56:
 1148              		.size	blink, .-blink
 1149              		.section	.text.cmd_at,"axv",@progbits
 1150              		.align 1
 1151              		.p2align 4,,15
 1152              		.type	cmd_at, @function
 1153              	cmd_at:
 1154              	.LFB50:
 1155              		.loc 1 187 0
 1156              		.cfi_startproc
 1157              	.LVL111:
 1158 0000 182106D0 		e_stwu %r1,-48(%r1)
 1159              	.LCFI42:
 1160              		.cfi_def_cfa_offset 48
 1161 0004 0080     		se_mflr %r0
 1162 0006 DBF1     		se_stw %r31,44(%r1)
 1163 0008 DD01     		se_stw %r0,52(%r1)
 1164              		.cfi_offset 65, 4
 1165              		.cfi_offset 31, -4
 1166              		.loc 1 187 0
 1167 000a 013F     		se_mr %r31,%r3
 1168 000c 0251     		se_mtar %r9,%r5
 1169              		.loc 1 192 0
 1170 000e 1824A800 		e_cmpi %cr1,%r4,0
 1171 0012 7A160038 		e_beq %cr1,.L79
 1172              		.loc 1 199 0
 1173 0016 50690000 		e_lwz %r3,0(%r9)
 1174              	.LVL112:
 1175 001a 70A003E8 		e_li %r5,1000
 1176              	.LVL113:
 1177 001e 18818008 		e_addi %r4,%r1,8
 1178              	.LVL114:
 1179 0022 78000001 		e_bl get_string
 1180              	.LVL115:
 1181              		.loc 1 200 0
 1182 0026 01F3     		se_mr %r3,%r31
 1183 0028 18818008 		e_addi %r4,%r1,8
 1184 002c 78000001 		e_bl chprintf
 1185              	.LVL116:
 1186              		.loc 1 201 0
 1187 0030 01F3     		se_mr %r3,%r31
 1188 0032 7080E000 		e_lis %r4,.LC25@ha
 1189 0036 1C840000 		e_la %r4,.LC25@l(%r4)
 1190 003a 78000001 		e_bl chprintf
 1191              	.LVL117:
 1192              		.loc 1 202 0
 1193 003e CD01     		se_lwz %r0,52(%r1)
 1194 0040 0090     		se_mtlr %r0
 1195              		.cfi_remember_state
 1196              		.cfi_restore 65
 1197 0042 CBF1     		se_lwz %r31,44(%r1)
GAS LISTING C:\Users\Saeh\AppData\Local\Temp\ccRg9ywZ.s 			page 22


 1198              	.LVL118:
 1199 0044 18218030 		e_addi %r1,%r1,48
 1200              	.LCFI43:
 1201              		.cfi_restore 31
 1202              		.cfi_def_cfa_offset 0
 1203 0048 0004     		se_blr
 1204              	.LVL119:
 1205              	.L79:
 1206              	.LCFI44:
 1207              		.cfi_restore_state
 1208              	.LBB76:
 1209              	.LBB77:
 1210              		.loc 1 193 0
 1211 004a 7080E000 		e_lis %r4,.LC23@ha
 1212              	.LVL120:
 1213 004e 1C840000 		e_la %r4,.LC23@l(%r4)
 1214 0052 78000001 		e_bl chprintf
 1215              	.LVL121:
 1216              		.loc 1 194 0
 1217 0056 01F3     		se_mr %r3,%r31
 1218 0058 7080E000 		e_lis %r4,.LC24@ha
 1219 005c 1C840000 		e_la %r4,.LC24@l(%r4)
 1220 0060 78000001 		e_bl chprintf
 1221              	.LVL122:
 1222              	.LBE77:
 1223              	.LBE76:
 1224              		.loc 1 202 0
 1225 0064 CD01     		se_lwz %r0,52(%r1)
 1226 0066 0090     		se_mtlr %r0
 1227              		.cfi_restore 65
 1228 0068 CBF1     		se_lwz %r31,44(%r1)
 1229              	.LVL123:
 1230 006a 18218030 		e_addi %r1,%r1,48
 1231              	.LCFI45:
 1232              		.cfi_restore 31
 1233              		.cfi_def_cfa_offset 0
 1234 006e 0004     		se_blr
 1235              		.cfi_endproc
 1236              	.LFE50:
 1237              		.size	cmd_at, .-cmd_at
 1238              		.section	.text.ThreadCarBlinker,"axv",@progbits
 1239              		.align 1
 1240              		.p2align 4,,15
 1241              		.globl ThreadCarBlinker
 1242              		.type	ThreadCarBlinker, @function
 1243              	ThreadCarBlinker:
 1244              	.LFB46:
 1245              		.loc 1 34 0
 1246              		.cfi_startproc
 1247              	.LVL124:
 1248 0000 182106E8 		e_stwu %r1,-24(%r1)
 1249              	.LCFI46:
 1250              		.cfi_def_cfa_offset 24
 1251              		.loc 1 36 0
 1252 0004 7120E000 		e_lis %r9,rlist+24@ha
 1253              		.loc 1 34 0
 1254 0008 1BA1090C 		e_stmw %r29,12(%r1)
GAS LISTING C:\Users\Saeh\AppData\Local\Temp\ccRg9ywZ.s 			page 23


 1255              		.loc 1 36 0
 1256 000c 51490000 		e_lwz %r10,rlist+24@l(%r9)
 1257              		.loc 1 34 0
 1258 0010 0080     		se_mflr %r0
 1259              		.cfi_offset 29, -12
 1260              		.cfi_offset 30, -8
 1261              		.cfi_offset 31, -4
 1262              		.cfi_register 65, 0
 1263              		.loc 1 38 0
 1264 0012 73C0E000 		e_lis %r30,.LANCHOR3@ha
 1265              		.loc 1 34 0
 1266 0016 D701     		se_stw %r0,28(%r1)
 1267              		.cfi_offset 65, 4
 1268              		.loc 1 36 0
 1269 0018 7120E000 		e_lis %r9,.LC26@ha
 1270 001c 1D290000 		e_la %r9,.LC26@l(%r9)
 1271 0020 552A0018 		e_stw %r9,24(%r10)
 1272              		.loc 1 38 0
 1273 0024 513E0000 		e_lwz %r9,.LANCHOR3@l(%r30)
 1274 0028 1829A800 		e_cmpi %cr1,%r9,0
 1275 002c 7A16005E 		e_beq %cr1,.L86
 1276 0030 1FDE0000 		e_la %r30,.LANCHOR3@l(%r30)
 1277              		.loc 1 46 0
 1278 0034 73F8E3F9 		e_lis %r31,0xc3f9
 1279 0038 480D     		se_li %r29,0
 1280 003a 78000028 		e_b .L85
 1281              	.LVL125:
 1282              	.L82:
 1283              		.loc 1 42 0
 1284 003e 1829A802 		e_cmpi %cr1,%r9,2
 1285 0042 7A16006C 		e_beq %cr1,.L89
 1286              		.loc 1 46 0
 1287 0046 37BF0602 		e_stb %r29,1538(%r31)
 1288              		.loc 1 47 0
 1289 004a 37BF0601 		e_stb %r29,1537(%r31)
 1290              	.L83:
 1291              		.loc 1 50 0
 1292 004e 706001F4 		e_li %r3,500
 1293 0052 78000001 		e_bl chThdSleep
 1294              	.LVL126:
 1295              		.loc 1 38 0
 1296 0056 513E0000 		e_lwz %r9,0(%r30)
 1297 005a 1829A800 		e_cmpi %cr1,%r9,0
 1298 005e 7A16002C 		e_beq %cr1,.L86
 1299              	.L85:
 1300              		.loc 1 39 0
 1301 0062 1829A801 		e_cmpi %cr1,%r9,1
 1302 0066 7A06FFD8 		e_bne %cr1,.L82
 1303              		.loc 1 40 0
 1304 006a 313F0602 		e_lbz %r9,1538(%r31)
 1305              		.loc 1 50 0
 1306 006e 706001F4 		e_li %r3,500
 1307              		.loc 1 40 0
 1308 0072 7D2948F8 		nor %r9,%r9,%r9
 1309 0076 353F0602 		e_stb %r9,1538(%r31)
 1310              		.loc 1 50 0
 1311 007a 78000001 		e_bl chThdSleep
GAS LISTING C:\Users\Saeh\AppData\Local\Temp\ccRg9ywZ.s 			page 24


 1312              	.LVL127:
 1313              		.loc 1 38 0
 1314 007e 513E0000 		e_lwz %r9,0(%r30)
 1315 0082 1829A800 		e_cmpi %cr1,%r9,0
 1316 0086 7A06FFDC 		e_bne %cr1,.L85
 1317              	.L86:
 1318              		.loc 1 53 0
 1319 008a 7138E3F9 		e_lis %r9,0xc3f9
 1320 008e 71400000 		e_li %r10,0
 1321              		.loc 1 56 0
 1322 0092 4803     		se_li %r3,0
 1323              		.loc 1 53 0
 1324 0094 35490602 		e_stb %r10,1538(%r9)
 1325              		.loc 1 54 0
 1326 0098 35490601 		e_stb %r10,1537(%r9)
 1327              		.loc 1 56 0
 1328 009c 78000001 		e_bl chThdExit
 1329              	.LVL128:
 1330              		.loc 1 59 0
 1331 00a0 C701     		se_lwz %r0,28(%r1)
 1332 00a2 0090     		se_mtlr %r0
 1333              		.cfi_remember_state
 1334              		.cfi_restore 65
 1335 00a4 1BA1080C 		e_lmw %r29,12(%r1)
 1336 00a8 4803     		se_li %r3,0
 1337 00aa 2171     		se_addi %r1,24
 1338              	.LCFI47:
 1339              		.cfi_restore 31
 1340              		.cfi_restore 30
 1341              		.cfi_restore 29
 1342              		.cfi_def_cfa_offset 0
 1343 00ac 0004     		se_blr
 1344              	.L89:
 1345              	.LCFI48:
 1346              		.cfi_restore_state
 1347              		.loc 1 43 0
 1348 00ae 313F0601 		e_lbz %r9,1537(%r31)
 1349 00b2 7D2948F8 		nor %r9,%r9,%r9
 1350 00b6 353F0601 		e_stb %r9,1537(%r31)
 1351 00ba 79FFFF94 		e_b .L83
 1352              		.cfi_endproc
 1353              	.LFE46:
 1354              		.size	ThreadCarBlinker, .-ThreadCarBlinker
 1355              		.globl shell_commands
 1356              		.globl waThreadFullDemo
 1357              		.globl waThreadCarBlinker
 1358              		.globl bFullDemoRunning
 1359              		.globl iCarBlinker
 1360              		.section	.bss.waThreadFullDemo,"aw",@nobits
 1361              		.align 3
 1362              		.set	.LANCHOR2,. + 0
 1363              		.type	waThreadFullDemo, @object
 1364              		.size	waThreadFullDemo, 616
 1365              	waThreadFullDemo:
 1366 0000 00000000 		.zero	616
 1366      00000000 
 1366      00000000 
GAS LISTING C:\Users\Saeh\AppData\Local\Temp\ccRg9ywZ.s 			page 25


 1366      00000000 
 1366      00000000 
 1367              		.section	.bss.iCarBlinker,"aw",@nobits
 1368              		.align 2
 1369              		.set	.LANCHOR3,. + 0
 1370              		.type	iCarBlinker, @object
 1371              		.size	iCarBlinker, 4
 1372              	iCarBlinker:
 1373 0000 00000000 		.zero	4
 1374              		.section	.bss.bFullDemoRunning,"aw",@nobits
 1375              		.set	.LANCHOR0,. + 0
 1376              		.type	bFullDemoRunning, @object
 1377              		.size	bFullDemoRunning, 1
 1378              	bFullDemoRunning:
 1379 0000 00       		.zero	1
 1380              		.section	.rodata.str1.4,"aMS",@progbits,1
 1381              		.align 2
 1382              	.LC0:
 1383 0000 54687265 		.string	"ThreadFullDemo"
 1383      61644675 
 1383      6C6C4465 
 1383      6D6F00
 1384 000f 00       		.zero	1
 1385              	.LC1:
 1386 0010 55736167 		.string	"Usage: stopdemo\r\n"
 1386      653A2073 
 1386      746F7064 
 1386      656D6F0D 
 1386      0A00
 1387 0022 0000     		.zero	2
 1388              	.LC2:
 1389 0024 55736167 		.string	"Usage: mem\r\n"
 1389      653A206D 
 1389      656D0D0A 
 1389      00
 1390 0031 000000   		.zero	3
 1391              	.LC3:
 1392 0034 636F7265 		.string	"core free memory : %u bytes\r\n"
 1392      20667265 
 1392      65206D65 
 1392      6D6F7279 
 1392      203A2025 
 1393 0052 0000     		.zero	2
 1394              	.LC4:
 1395 0054 68656170 		.string	"heap fragments   : %u\r\n"
 1395      20667261 
 1395      676D656E 
 1395      74732020 
 1395      203A2025 
 1396              	.LC5:
 1397 006c 68656170 		.string	"heap free total  : %u bytes\r\n"
 1397      20667265 
 1397      6520746F 
 1397      74616C20 
 1397      203A2025 
 1398 008a 0000     		.zero	2
 1399              	.LC6:
GAS LISTING C:\Users\Saeh\AppData\Local\Temp\ccRg9ywZ.s 			page 26


 1400 008c 55736167 		.string	"Usage: stopgps\r\n"
 1400      653A2073 
 1400      746F7067 
 1400      70730D0A 
 1400      00
 1401 009d 000000   		.zero	3
 1402              	.LC7:
 1403 00a0 54687265 		.string	"ThreadGPS terminated\r\n"
 1403      61644750 
 1403      53207465 
 1403      726D696E 
 1403      61746564 
 1404 00b7 00       		.zero	1
 1405              	.LC8:
 1406 00b8 54687265 		.string	"ThreadGPS not running\r\n"
 1406      61644750 
 1406      53206E6F 
 1406      74207275 
 1406      6E6E696E 
 1407              	.LC9:
 1408 00d0 55736167 		.string	"Usage: speed\r\n"
 1408      653A2073 
 1408      70656564 
 1408      0D0A00
 1409 00df 00       		.zero	1
 1410              	.LC10:
 1411 00e0 53706565 		.string	"Speed %d\r\n"
 1411      64202564 
 1411      0D0A00
 1412 00eb 00       		.zero	1
 1413              	.LC11:
 1414 00ec 55736167 		.string	"Usage: threads\r\n"
 1414      653A2074 
 1414      68726561 
 1414      64730D0A 
 1414      00
 1415 00fd 000000   		.zero	3
 1416              	.LC12:
 1417 0100 20202020 		.string	"    addr    stack prio refs     state time\r\n"
 1417      61646472 
 1417      20202020 
 1417      73746163 
 1417      6B207072 
 1418 012d 000000   		.zero	3
 1419              	.LC13:
 1420 0130 252E386C 		.string	"%.8lx %.8lx %4lu %4lu %9s %lu\r\n"
 1420      7820252E 
 1420      386C7820 
 1420      25346C75 
 1420      2025346C 
 1421              	.LC14:
 1422 0150 55736167 		.string	"Usage: startgps\r\n"
 1422      653A2073 
 1422      74617274 
 1422      6770730D 
 1422      0A00
 1423 0162 0000     		.zero	2
GAS LISTING C:\Users\Saeh\AppData\Local\Temp\ccRg9ywZ.s 			page 27


 1424              	.LC15:
 1425 0164 54687265 		.string	"ThreadGPS started\r\n"
 1425      61644750 
 1425      53207374 
 1425      61727465 
 1425      640D0A00 
 1426              	.LC16:
 1427 0178 54687265 		.string	"ThreadGPS already started\r\n"
 1427      61644750 
 1427      5320616C 
 1427      72656164 
 1427      79207374 
 1428              	.LC17:
 1429 0194 55736167 		.string	"Usage: startdemo\r\n"
 1429      653A2073 
 1429      74617274 
 1429      64656D6F 
 1429      0D0A00
 1430 01a7 00       		.zero	1
 1431              	.LC18:
 1432 01a8 46756C6C 		.string	"Full Demo Already running\r\n"
 1432      2044656D 
 1432      6F20416C 
 1432      72656164 
 1432      79207275 
 1433              	.LC19:
 1434 01c4 55736167 		.string	"Usage: drive <DIRECTION (0/1/2)> <SPEED (0-10000)>\r\n"
 1434      653A2064 
 1434      72697665 
 1434      203C4449 
 1434      52454354 
 1435 01f9 000000   		.zero	3
 1436              	.LC20:
 1437 01fc 506C6561 		.string	"Please between 0 and 10000\r\n"
 1437      73652062 
 1437      65747765 
 1437      656E2030 
 1437      20616E64 
 1438 0219 000000   		.zero	3
 1439              	.LC21:
 1440 021c 55736167 		.string	"Usage: turn <DIRECTION (0/1/2)>\r\n"
 1440      653A2074 
 1440      75726E20 
 1440      3C444952 
 1440      45435449 
 1441 023e 0000     		.zero	2
 1442              	.LC22:
 1443 0240 55736167 		.string	"Usage: blink <0/1>\r\n"
 1443      653A2062 
 1443      6C696E6B 
 1443      203C302F 
 1443      313E0D0A 
 1444 0255 000000   		.zero	3
 1445              	.LC23:
 1446 0258 55736167 		.string	"Usage: send <ATCOMMAND>\r\n"
 1446      653A2073 
 1446      656E6420 
GAS LISTING C:\Users\Saeh\AppData\Local\Temp\ccRg9ywZ.s 			page 28


 1446      3C415443 
 1446      4F4D4D41 
 1447 0272 0000     		.zero	2
 1448              	.LC24:
 1449 0274 5741524E 		.string	"WARNING : BT device should not be connected on any terminal\r\n"
 1449      494E4720 
 1449      3A204254 
 1449      20646576 
 1449      69636520 
 1450 02b2 0000     		.zero	2
 1451              	.LC25:
 1452 02b4 0D0A00   		.string	"\r\n"
 1453 02b7 00       		.zero	1
 1454              	.LC26:
 1455 02b8 54687265 		.string	"ThreadCarBlinker"
 1455      61644361 
 1455      72426C69 
 1455      6E6B6572 
 1455      00
 1456 02c9 000000   		.zero	3
 1457              	.LC27:
 1458 02cc 52454144 		.string	"READY"
 1458      5900
 1459 02d2 0000     		.zero	2
 1460              	.LC28:
 1461 02d4 43555252 		.string	"CURRENT"
 1461      454E5400 
 1462              	.LC29:
 1463 02dc 53555350 		.string	"SUSPENDED"
 1463      454E4445 
 1463      4400
 1464 02e6 0000     		.zero	2
 1465              	.LC30:
 1466 02e8 57545345 		.string	"WTSEM"
 1466      4D00
 1467 02ee 0000     		.zero	2
 1468              	.LC31:
 1469 02f0 57544D54 		.string	"WTMTX"
 1469      5800
 1470 02f6 0000     		.zero	2
 1471              	.LC32:
 1472 02f8 5754434F 		.string	"WTCOND"
 1472      4E4400
 1473 02ff 00       		.zero	1
 1474              	.LC33:
 1475 0300 534C4545 		.string	"SLEEPING"
 1475      50494E47 
 1475      00
 1476 0309 000000   		.zero	3
 1477              	.LC34:
 1478 030c 57544558 		.string	"WTEXIT"
 1478      495400
 1479 0313 00       		.zero	1
 1480              	.LC35:
 1481 0314 57544F52 		.string	"WTOREVT"
 1481      45565400 
 1482              	.LC36:
GAS LISTING C:\Users\Saeh\AppData\Local\Temp\ccRg9ywZ.s 			page 29


 1483 031c 5754414E 		.string	"WTANDEVT"
 1483      44455654 
 1483      00
 1484 0325 000000   		.zero	3
 1485              	.LC37:
 1486 0328 534E444D 		.string	"SNDMSGQ"
 1486      53475100 
 1487              	.LC38:
 1488 0330 534E444D 		.string	"SNDMSG"
 1488      534700
 1489 0337 00       		.zero	1
 1490              	.LC39:
 1491 0338 57544D53 		.string	"WTMSG"
 1491      4700
 1492 033e 0000     		.zero	2
 1493              	.LC40:
 1494 0340 57545155 		.string	"WTQUEUE"
 1494      45554500 
 1495              	.LC41:
 1496 0348 46494E41 		.string	"FINAL"
 1496      4C00
 1497 034e 0000     		.zero	2
 1498              	.LC42:
 1499 0350 6D656D00 		.string	"mem"
 1500              	.LC43:
 1501 0354 74687265 		.string	"threads"
 1501      61647300 
 1502              	.LC44:
 1503 035c 73656E64 		.string	"send"
 1503      00
 1504 0361 000000   		.zero	3
 1505              	.LC45:
 1506 0364 73746172 		.string	"startgps"
 1506      74677073 
 1506      00
 1507 036d 000000   		.zero	3
 1508              	.LC46:
 1509 0370 73746F70 		.string	"stopgps"
 1509      67707300 
 1510              	.LC47:
 1511 0378 73706565 		.string	"speed"
 1511      6400
 1512 037e 0000     		.zero	2
 1513              	.LC48:
 1514 0380 64726976 		.string	"drive"
 1514      6500
 1515 0386 0000     		.zero	2
 1516              	.LC49:
 1517 0388 7475726E 		.string	"turn"
 1517      00
 1518 038d 000000   		.zero	3
 1519              	.LC50:
 1520 0390 626C696E 		.string	"blink"
 1520      6B00
 1521 0396 0000     		.zero	2
 1522              	.LC51:
 1523 0398 73746172 		.string	"startdemo"
GAS LISTING C:\Users\Saeh\AppData\Local\Temp\ccRg9ywZ.s 			page 30


 1523      7464656D 
 1523      6F00
 1524 03a2 0000     		.zero	2
 1525              	.LC52:
 1526 03a4 73746F70 		.string	"stopdemo"
 1526      64656D6F 
 1526      00
 1527              		.section	.rodata.shell_commands,"a",@progbits
 1528              		.align 2
 1529              		.type	shell_commands, @object
 1530              		.size	shell_commands, 96
 1531              	shell_commands:
 1532 0000 00000000 		.long	.LC42
 1533 0004 00000000 		.long	cmd_mem
 1534 0008 00000000 		.long	.LC43
 1535 000c 00000000 		.long	cmd_threads
 1536 0010 00000000 		.long	.LC44
 1537 0014 00000000 		.long	cmd_at
 1538 0018 00000000 		.long	.LC45
 1539 001c 00000000 		.long	startgps
 1540 0020 00000000 		.long	.LC46
 1541 0024 00000000 		.long	stopgps
 1542 0028 00000000 		.long	.LC47
 1543 002c 00000000 		.long	speed
 1544 0030 00000000 		.long	.LC48
 1545 0034 00000000 		.long	drive
 1546 0038 00000000 		.long	.LC49
 1547 003c 00000000 		.long	turn
 1548 0040 00000000 		.long	.LC50
 1549 0044 00000000 		.long	blink
 1550 0048 00000000 		.long	.LC51
 1551 004c 00000000 		.long	startdemo
 1552 0050 00000000 		.long	.LC52
 1553 0054 00000000 		.long	stopdemo
 1554 0058 00000000 		.long	0
 1555 005c 00000000 		.long	0
 1556              		.section	.rodata.states.9364,"a",@progbits
 1557              		.align 2
 1558              		.set	.LANCHOR1,. + 0
 1559              		.type	states.9364, @object
 1560              		.size	states.9364, 60
 1561              	states.9364:
 1562 0000 00000000 		.long	.LC27
 1563 0004 00000000 		.long	.LC28
 1564 0008 00000000 		.long	.LC29
 1565 000c 00000000 		.long	.LC30
 1566 0010 00000000 		.long	.LC31
 1567 0014 00000000 		.long	.LC32
 1568 0018 00000000 		.long	.LC33
 1569 001c 00000000 		.long	.LC34
 1570 0020 00000000 		.long	.LC35
 1571 0024 00000000 		.long	.LC36
 1572 0028 00000000 		.long	.LC37
 1573 002c 00000000 		.long	.LC38
 1574 0030 00000000 		.long	.LC39
 1575 0034 00000000 		.long	.LC40
 1576 0038 00000000 		.long	.LC41
GAS LISTING C:\Users\Saeh\AppData\Local\Temp\ccRg9ywZ.s 			page 31


 1577              		.section	.bss.waThreadCarBlinker,"aw",@nobits
 1578              		.align 3
 1579              		.type	waThreadCarBlinker, @object
 1580              		.size	waThreadCarBlinker, 616
 1581              	waThreadCarBlinker:
 1582 0000 00000000 		.zero	616
 1582      00000000 
 1582      00000000 
 1582      00000000 
 1582      00000000 
 1583              		.section	".text","axv"
 1584              	.Letext0:
 1585              		.file 3 "c:\\spc5studio\\eclipse\\plugins\\com.st.tools.spc5.tools.gnu.gcc.ppcvle.win32_1.0.0.2016
 1586              		.file 4 "c:\\spc5studio\\eclipse\\plugins\\com.st.tools.spc5.tools.gnu.gcc.ppcvle.win32_1.0.0.2016
 1587              		.file 5 "c:\\spc5studio\\eclipse\\plugins\\com.st.tools.spc5.tools.gnu.gcc.ppcvle.win32_1.0.0.2016
 1588              		.file 6 "./components/chibios_rt_spc560dxx_kernel_port_component/lib/include/chtypes.h"
 1589              		.file 7 "./components/chibios_rt_portable_kernel_component/lib/include/chlists.h"
 1590              		.file 8 "./components/chibios_rt_portable_kernel_component/lib/include/chthreads.h"
 1591              		.file 9 "./components/chibios_rt_spc560dxx_kernel_port_component/lib/include/chcore.h"
 1592              		.file 10 "./components/chibios_rt_portable_kernel_component/lib/include/chvt.h"
 1593              		.file 11 "./components/chibios_rt_portable_kernel_component/lib/include/chschd.h"
 1594              		.file 12 "./components/chibios_rt_portable_kernel_component/lib/include/chmtx.h"
 1595              		.file 13 "./components/chibios_rt_portable_kernel_component/lib/include/chevents.h"
 1596              		.file 14 "./components/chibios_rt_portable_kernel_component/lib/include/chmemcore.h"
 1597              		.file 15 "./components/chibios_rt_portable_kernel_component/lib/include/chheap.h"
 1598              		.file 16 "./components/chibios_rt_portable_kernel_component/lib/include/chqueues.h"
 1599              		.file 17 "./components/chibios_rt_portable_kernel_component/lib/include/chstreams.h"
 1600              		.file 18 "./components/chibios_rt_spc5xx_osal_component/lib/include/osal.h"
 1601              		.file 19 "./components/spc560dxx_hal_drivers_component/lib/include/xpc560d.h"
 1602              		.file 20 "./components/portable_spc5_hal_component/lib/include/hal_queues.h"
 1603              		.file 21 "./components/portable_spc5_hal_component/lib/include/serial.h"
 1604              		.file 22 "./components/spc560dxx_hal_drivers_component/lib/include/spc5_linflex.h"
 1605              		.file 23 "./components/chibios_rt_portable_mini_shell_component/lib/include/shell.h"
 1606              		.file 24 "c:\\spc5studio\\eclipse\\plugins\\com.st.tools.spc5.tools.gnu.gcc.ppcvle.win32_1.0.0.201
 1607              		.file 25 "<built-in>"
 1608              		.file 26 "./source/shellcmd.h"
 1609              		.file 27 "./source/shellbt.h"
 1610              		.file 28 "./source/speedsensor.h"
 1611              		.file 29 "./source/carcommand.h"
 1612              		.file 30 "./components/chibios_rt_portable_kernel_component/lib/include/chregistry.h"
 1613              		.file 31 "c:\\spc5studio\\eclipse\\plugins\\com.st.tools.spc5.tools.gnu.gcc.ppcvle.win32_1.0.0.201
 1614              		.file 32 "./components/spc560dxx_hal_drivers_component/lib/include/serial_lld.h"
 1615              		.file 33 "./source/serial_input.h"